; Function Attrs: nounwind uwtable
define dso_local i32 @uv_backend_timeout(ptr noundef %0) local_unnamed_addr #0 {
  %2 = getelementptr inbounds nuw i8, ptr %0, i64 88
  %3 = load ptr, ptr %2, align 8
  %.not = icmp eq ptr %2, %3
  br i1 %.not, label %4, label %uv__backend_timeout.exit

4:                                                ; preds = %1
  %5 = getelementptr inbounds nuw i8, ptr %0, i64 48
  %6 = load i32, ptr %5, align 8
  %7 = icmp eq i32 %6, 0
  br i1 %7, label %8, label %uv__backend_timeout.exit

8:                                                ; preds = %4
  %9 = getelementptr inbounds nuw i8, ptr %0, i64 8
  %10 = load i32, ptr %9, align 8
  %.not.i = icmp eq i32 %10, 0
  br i1 %.not.i, label %11, label %14

11:                                               ; preds = %8
  %12 = getelementptr inbounds nuw i8, ptr %0, i64 32
  %13 = load i32, ptr %12, align 8
  %.not8.i = icmp eq i32 %13, 0
  br i1 %.not8.i, label %uv__backend_timeout.exit, label %14

14:                                               ; preds = %11, %8
  %15 = getelementptr inbounds nuw i8, ptr %0, i64 72
  %16 = load ptr, ptr %15, align 8
  %.not11.i = icmp eq ptr %15, %16
  br i1 %.not11.i, label %17, label %uv__backend_timeout.exit

17:                                               ; preds = %14
  %18 = getelementptr inbounds nuw i8, ptr %0, i64 416
  %19 = load ptr, ptr %18, align 8
  %.not12.i = icmp eq ptr %18, %19
  br i1 %.not12.i, label %20, label %uv__backend_timeout.exit

20:                                               ; preds = %17
  %21 = getelementptr inbounds nuw i8, ptr %0, i64 56
  %22 = load i64, ptr %21, align 8
  %23 = and i64 %22, 2
  %24 = icmp eq i64 %23, 0
  br i1 %24, label %25, label %uv__backend_timeout.exit

25:                                               ; preds = %20
  %26 = getelementptr inbounds nuw i8, ptr %0, i64 360
  %27 = load ptr, ptr %26, align 8
  %28 = icmp eq ptr %27, null
  br i1 %28, label %29, label %uv__backend_timeout.exit

29:                                               ; preds = %25
  %30 = tail call i32 @uv__next_timeout(ptr noundef nonnull %0) #23
  br label %uv__backend_timeout.exit

uv__backend_timeout.exit:                         ; preds = %29, %25, %20, %17, %14, %11, %4, %1
  %.0 = phi i32 [ 0, %1 ], [ %30, %29 ], [ 0, %25 ], [ 0, %20 ], [ 0, %17 ], [ 0, %14 ], [ 0, %11 ], [ 0, %4 ]
  ret i32 %.0
}